	.arch armv6k
	.fpu vfp
	.eabi_attribute 28, 1
	.eabi_attribute 20, 1
	.eabi_attribute 21, 1
	.eabi_attribute 23, 3
	.eabi_attribute 24, 1
	.eabi_attribute 25, 1
	.eabi_attribute 26, 1
	.eabi_attribute 30, 2
	.eabi_attribute 34, 1
	.eabi_attribute 18, 4
	.file	"plgldr.c"
	.text
.Ltext0:
	.cfi_sections	.debug_frame
	.file 1 "/home/jmvieitez/Documents/Proyectos/SpiceRack/Barista/Barista/plgldr/src/plgldr.c"
	.section	.rodata.plgLdrInit.str1.4,"aMS",%progbits,1
	.align	2
.LC0:
	.ascii	"plg:ldr\000"
	.section	.text.plgLdrInit,"ax",%progbits
	.align	2
	.global	plgLdrInit
	.syntax unified
	.arm
	.type	plgLdrInit, %function
plgLdrInit:
.LFB97:
	.loc 1 8 1 view -0
	.cfi_startproc
	@ args = 0, pretend = 0, frame = 0
	@ frame_needed = 0, uses_anonymous_args = 0
	@ link register save eliminated.
	.loc 1 9 5 view .LVU1
.LVL0:
	.loc 1 11 5 view .LVU2
	.loc 1 11 9 is_stmt 0 view .LVU3
	mcr	p15, 0, r0, c7, c10, 5
	ldr	r3, .L6
.L3:
	ldrex	r2, [r3]
	add	r1, r2, #1
	strex	r0, r1, [r3]
	cmp	r0, #0
	bne	.L3
	.loc 1 11 8 view .LVU4
	cmp	r2, #0
	.loc 1 11 9 view .LVU5
	mcr	p15, 0, r0, c7, c10, 5
	.loc 1 11 8 view .LVU6
	beq	.L5
	.loc 1 13 5 is_stmt 1 view .LVU7
	.loc 1 14 1 is_stmt 0 view .LVU8
	mov	r0, #0
	bx	lr
.L5:
	.loc 1 12 9 is_stmt 1 view .LVU9
	.loc 1 12 15 is_stmt 0 view .LVU10
	ldr	r1, .L6+4
	ldr	r0, .L6+8
	b	svcConnectToPort
.LVL1:
.L7:
	.align	2
.L6:
	.word	plgLdrRefCount
	.word	.LC0
	.word	plgLdrHandle
	.cfi_endproc
.LFE97:
	.size	plgLdrInit, .-plgLdrInit
	.section	.text.plgLdrExit,"ax",%progbits
	.align	2
	.global	plgLdrExit
	.syntax unified
	.arm
	.type	plgLdrExit, %function
plgLdrExit:
.LFB98:
	.loc 1 17 1 is_stmt 1 view -0
	.cfi_startproc
	@ args = 0, pretend = 0, frame = 0
	@ frame_needed = 0, uses_anonymous_args = 0
	@ link register save eliminated.
	.loc 1 18 5 view .LVU12
	.loc 1 18 9 is_stmt 0 view .LVU13
	mcr	p15, 0, r0, c7, c10, 5
	ldr	r3, .L11
.L10:
	ldrex	r2, [r3]
	sub	r2, r2, #1
	strex	r1, r2, [r3]
	cmp	r1, #0
	bne	.L10
	.loc 1 18 8 view .LVU14
	cmp	r2, #0
	.loc 1 18 9 view .LVU15
	mcr	p15, 0, r0, c7, c10, 5
	.loc 1 18 8 view .LVU16
	bxne	lr
	.loc 1 20 5 is_stmt 1 view .LVU17
	ldr	r3, .L11+4
	ldr	r0, [r3]
	b	svcCloseHandle
.LVL2:
.L12:
	.align	2
.L11:
	.word	plgLdrRefCount
	.word	plgLdrHandle
	.cfi_endproc
.LFE98:
	.size	plgLdrExit, .-plgLdrExit
	.section	.text.PLGLDR__IsPluginLoaderEnabled,"ax",%progbits
	.align	2
	.global	PLGLDR__IsPluginLoaderEnabled
	.syntax unified
	.arm
	.type	PLGLDR__IsPluginLoaderEnabled, %function
PLGLDR__IsPluginLoaderEnabled:
.LVL3:
.LFB99:
	.loc 1 24 1 view -0
	.cfi_startproc
	@ args = 0, pretend = 0, frame = 0
	@ frame_needed = 0, uses_anonymous_args = 0
	.loc 1 25 5 view .LVU19
	.loc 1 27 5 view .LVU20
.LBB26:
.LBI26:
	.file 2 "/opt/devkitpro/libctru/include/3ds/svc.h"
	.loc 2 543 20 view .LVU21
	.loc 2 545 2 view .LVU22
.LBB27:
.LBI27:
	.loc 2 532 21 view .LVU23
.LBB28:
	.loc 2 534 2 view .LVU24
	.loc 2 535 2 view .LVU25
.LBE28:
.LBE27:
.LBE26:
	.loc 1 29 15 is_stmt 0 view .LVU26
	mov	r2, #131072
	.loc 1 30 18 view .LVU27
	ldr	r1, .L16
	.loc 1 24 1 view .LVU28
	push	{r4, r5, r6, lr}
	.cfi_def_cfa_offset 16
	.cfi_offset 4, -16
	.cfi_offset 5, -12
	.cfi_offset 6, -8
	.cfi_offset 14, -4
.LBB31:
.LBB30:
.LBB29:
	.loc 2 535 2 view .LVU29
	.syntax divided
@ 535 "/opt/devkitpro/libctru/include/3ds/svc.h" 1
	mrc p15, 0, r5, c13, c0, 3
@ 0 "" 2
.LVL4:
	.loc 2 536 2 is_stmt 1 view .LVU30
	.loc 2 536 2 is_stmt 0 view .LVU31
	.arm
	.syntax unified
.LBE29:
.LBE30:
.LBE31:
	.loc 1 29 5 is_stmt 1 view .LVU32
	.loc 1 24 1 is_stmt 0 view .LVU33
	mov	r4, r0
	.loc 1 29 15 view .LVU34
	str	r2, [r5, #128]
	.loc 1 30 5 is_stmt 1 view .LVU35
	.loc 1 30 18 is_stmt 0 view .LVU36
	ldr	r0, [r1]
.LVL5:
	.loc 1 30 18 view .LVU37
	bl	svcSendSyncRequest
.LVL6:
	.loc 1 30 8 view .LVU38
	cmp	r0, #0
	.loc 1 30 8 view .LVU39
	poplt	{r4, r5, r6, pc}
	.loc 1 32 9 is_stmt 1 view .LVU40
	.loc 1 33 28 is_stmt 0 view .LVU41
	ldr	r3, [r5, #136]
	.loc 1 32 13 view .LVU42
	ldr	r0, [r5, #132]
.LVL7:
	.loc 1 33 9 is_stmt 1 view .LVU43
	.loc 1 33 28 is_stmt 0 view .LVU44
	subs	r3, r3, #0
	movne	r3, #1
	strb	r3, [r4]
	.loc 1 35 5 is_stmt 1 view .LVU45
	.loc 1 36 1 is_stmt 0 view .LVU46
	pop	{r4, r5, r6, pc}
.L17:
	.align	2
.L16:
	.word	plgLdrHandle
	.cfi_endproc
.LFE99:
	.size	PLGLDR__IsPluginLoaderEnabled, .-PLGLDR__IsPluginLoaderEnabled
	.section	.text.PLGLDR__SetPluginLoaderState,"ax",%progbits
	.align	2
	.global	PLGLDR__SetPluginLoaderState
	.syntax unified
	.arm
	.type	PLGLDR__SetPluginLoaderState, %function
PLGLDR__SetPluginLoaderState:
.LVL8:
.LFB100:
	.loc 1 39 1 is_stmt 1 view -0
	.cfi_startproc
	@ args = 0, pretend = 0, frame = 0
	@ frame_needed = 0, uses_anonymous_args = 0
	.loc 1 40 5 view .LVU48
	.loc 1 42 5 view .LVU49
.LBB32:
.LBI32:
	.loc 2 543 20 view .LVU50
	.loc 2 545 2 view .LVU51
.LBB33:
.LBI33:
	.loc 2 532 21 view .LVU52
.LBB34:
	.loc 2 534 2 view .LVU53
	.loc 2 535 2 view .LVU54
.LBE34:
.LBE33:
.LBE32:
	.loc 1 39 1 is_stmt 0 view .LVU55
	mov	r3, r0
	.loc 1 44 15 view .LVU56
	ldr	r2, .L21
	.loc 1 47 18 view .LVU57
	ldr	r1, .L21+4
	.loc 1 39 1 view .LVU58
	push	{r4, lr}
	.cfi_def_cfa_offset 8
	.cfi_offset 4, -8
	.cfi_offset 14, -4
.LBB37:
.LBB36:
.LBB35:
	.loc 2 535 2 view .LVU59
	.syntax divided
@ 535 "/opt/devkitpro/libctru/include/3ds/svc.h" 1
	mrc p15, 0, r4, c13, c0, 3
@ 0 "" 2
.LVL9:
	.loc 2 536 2 is_stmt 1 view .LVU60
	.loc 2 536 2 is_stmt 0 view .LVU61
	.arm
	.syntax unified
.LBE35:
.LBE36:
.LBE37:
	.loc 1 44 5 is_stmt 1 view .LVU62
	.loc 1 47 18 is_stmt 0 view .LVU63
	ldr	r0, [r1]
.LVL10:
	.loc 1 45 17 view .LVU64
	strd	r2, [r4, #128]
	.loc 1 47 5 is_stmt 1 view .LVU65
	.loc 1 47 18 is_stmt 0 view .LVU66
	bl	svcSendSyncRequest
.LVL11:
	.loc 1 47 8 view .LVU67
	cmp	r0, #0
	.loc 1 49 9 is_stmt 1 view .LVU68
	.loc 1 49 13 is_stmt 0 view .LVU69
	ldrge	r0, [r4, #132]
.LVL12:
	.loc 1 51 5 is_stmt 1 view .LVU70
	.loc 1 52 1 is_stmt 0 view .LVU71
	pop	{r4, pc}
.L22:
	.align	2
.L21:
	.word	196672
	.word	plgLdrHandle
	.cfi_endproc
.LFE100:
	.size	PLGLDR__SetPluginLoaderState, .-PLGLDR__SetPluginLoaderState
	.section	.text.PLGLDR__SetPluginLoadParameters,"ax",%progbits
	.align	2
	.global	PLGLDR__SetPluginLoadParameters
	.syntax unified
	.arm
	.type	PLGLDR__SetPluginLoadParameters, %function
PLGLDR__SetPluginLoadParameters:
.LVL13:
.LFB101:
	.loc 1 55 1 is_stmt 1 view -0
	.cfi_startproc
	@ args = 0, pretend = 0, frame = 0
	@ frame_needed = 0, uses_anonymous_args = 0
	.loc 1 56 5 view .LVU73
	.loc 1 58 5 view .LVU74
.LBB38:
.LBI38:
	.loc 2 543 20 view .LVU75
	.loc 2 545 2 view .LVU76
.LBB39:
.LBI39:
	.loc 2 532 21 view .LVU77
.LBB40:
	.loc 2 534 2 view .LVU78
	.loc 2 535 2 view .LVU79
.LBE40:
.LBE39:
.LBE38:
	.loc 1 55 1 is_stmt 0 view .LVU80
	mov	r3, r0
	.loc 1 68 18 view .LVU81
	ldr	r1, .L26
	.loc 1 60 15 view .LVU82
	ldr	r2, .L26+4
	.loc 1 68 18 view .LVU83
	ldr	r0, [r1]
.LVL14:
	.loc 1 61 17 view .LVU84
	ldrb	r1, [r3]	@ zero_extendqisi2
	.loc 1 55 1 view .LVU85
	push	{r4, lr}
	.cfi_def_cfa_offset 8
	.cfi_offset 4, -8
	.cfi_offset 14, -4
.LBB43:
.LBB42:
.LBB41:
	.loc 2 535 2 view .LVU86
	.syntax divided
@ 535 "/opt/devkitpro/libctru/include/3ds/svc.h" 1
	mrc p15, 0, r4, c13, c0, 3
@ 0 "" 2
.LVL15:
	.loc 2 536 2 is_stmt 1 view .LVU87
	.loc 2 536 2 is_stmt 0 view .LVU88
	.arm
	.syntax unified
.LBE41:
.LBE42:
.LBE43:
	.loc 1 60 5 is_stmt 1 view .LVU89
	.loc 1 60 15 is_stmt 0 view .LVU90
	str	r2, [r4, #128]
	.loc 1 61 5 is_stmt 1 view .LVU91
	.loc 1 61 17 is_stmt 0 view .LVU92
	str	r1, [r4, #132]
	.loc 1 62 5 is_stmt 1 view .LVU93
	.loc 1 65 15 is_stmt 0 view .LVU94
	ldr	r2, .L26+8
	.loc 1 62 27 view .LVU95
	ldr	r1, [r3, #4]
	.loc 1 63 15 view .LVU96
	ldr	ip, .L26+12
	.loc 1 65 15 view .LVU97
	str	r2, [r4, #148]
	.loc 1 66 22 view .LVU98
	add	r2, r3, #264
	.loc 1 64 22 view .LVU99
	add	r3, r3, #8
.LVL16:
	.loc 1 63 15 view .LVU100
	str	ip, [r4, #140]
	.loc 1 62 15 view .LVU101
	str	r1, [r4, #136]
	.loc 1 63 5 is_stmt 1 view .LVU102
	.loc 1 64 5 view .LVU103
	.loc 1 64 15 is_stmt 0 view .LVU104
	str	r3, [r4, #144]
	.loc 1 65 5 is_stmt 1 view .LVU105
	.loc 1 66 5 view .LVU106
	.loc 1 66 15 is_stmt 0 view .LVU107
	str	r2, [r4, #152]
	.loc 1 68 5 is_stmt 1 view .LVU108
	.loc 1 68 18 is_stmt 0 view .LVU109
	bl	svcSendSyncRequest
.LVL17:
	.loc 1 68 8 view .LVU110
	cmp	r0, #0
	.loc 1 70 9 is_stmt 1 view .LVU111
	.loc 1 70 13 is_stmt 0 view .LVU112
	ldrge	r0, [r4, #132]
.LVL18:
	.loc 1 72 5 is_stmt 1 view .LVU113
	.loc 1 73 1 is_stmt 0 view .LVU114
	pop	{r4, pc}
.L27:
	.align	2
.L26:
	.word	plgLdrHandle
	.word	262276
	.word	2058
	.word	4106
	.cfi_endproc
.LFE101:
	.size	PLGLDR__SetPluginLoadParameters, .-PLGLDR__SetPluginLoadParameters
	.section	.bss.plgLdrRefCount,"aw",%nobits
	.align	2
	.type	plgLdrRefCount, %object
	.size	plgLdrRefCount, 4
plgLdrRefCount:
	.space	4
	.section	.bss.plgLdrHandle,"aw",%nobits
	.align	2
	.type	plgLdrHandle, %object
	.size	plgLdrHandle, 4
plgLdrHandle:
	.space	4
	.text
.Letext0:
	.file 3 "/opt/devkitpro/devkitARM/arm-none-eabi/include/machine/_default_types.h"
	.file 4 "/opt/devkitpro/devkitARM/arm-none-eabi/include/sys/_stdint.h"
	.file 5 "/opt/devkitpro/devkitARM/lib/gcc/arm-none-eabi/12.1.0/include/stddef.h"
	.file 6 "/opt/devkitpro/libctru/include/3ds/types.h"
	.file 7 "/opt/devkitpro/libctru/include/3ds/ipc.h"
	.file 8 "/opt/devkitpro/libctru/include/3ds/services/csnd.h"
	.file 9 "/opt/devkitpro/libctru/include/3ds/services/ndm.h"
	.file 10 "/opt/devkitpro/libctru/include/3ds/gpu/enums.h"
	.file 11 "/opt/devkitpro/libctru/include/3ds/ndsp/channel.h"
	.file 12 "/opt/devkitpro/libctru/include/3ds/applets/error.h"
	.file 13 "/home/jmvieitez/Documents/Proyectos/SpiceRack/Barista/Barista/plgldr/include/plgldr.h"